target datalayout = "e-m:e-p270:32:32-p271:32:32-p272:64:64-i64:64-i128:128-f80:128-n8:16:32:64-S128"
target triple = "x86_64-pc-linux-gnu"

%"class.std::__cxx11::basic_string" = type { %"struct.std::__cxx11::basic_string<char>::_Alloc_hider", i64, %union.anon }
%"struct.std::__cxx11::basic_string<char>::_Alloc_hider" = type { ptr }
%union.anon = type { i64, [8 x i8] }

@.str.2 = private unnamed_addr constant [2 x i8] c"+\00", align 1
@.str.3 = private unnamed_addr constant [2 x i8] c"-\00", align 1
@.str.4 = private unnamed_addr constant [2 x i8] c"*\00", align 1
@.str.5 = private unnamed_addr constant [2 x i8] c"/\00", align 1
@.str.6 = private unnamed_addr constant [2 x i8] c"%\00", align 1
@.str.7 = private unnamed_addr constant [2 x i8] c"&\00", align 1
@.str.8 = private unnamed_addr constant [2 x i8] c"^\00", align 1
@.str.9 = private unnamed_addr constant [2 x i8] c"|\00", align 1

; Function Attrs: mustprogress uwtable
define dso_local void @_ZN24FunctionInvocationBinary16get_binop_stringB5cxx11E10eBinaryOps(ptr dead_on_unwind noalias writable sret(%"class.std::__cxx11::basic_string") align 8 %0, i32 noundef %1) #5 align 2 personality ptr @__gxx_personality_v0 {
  %3 = alloca ptr, align 8
  %4 = alloca i32, align 4
  %5 = alloca i1, align 1
  %6 = alloca ptr, align 8
  %7 = alloca i32, align 4
  store ptr %0, ptr %3, align 8
  store i32 %1, ptr %4, align 4
  store i1 false, ptr %5, align 1
  call void @_ZNSt7__cxx1112basic_stringIcSt11char_traitsIcESaIcEEC1Ev(ptr noundef nonnull align 8 dereferenceable(32) %0) #3
  %8 = load i32, ptr %4, align 4
  switch i32 %8, label %37 [
    i32 0, label %9
    i32 1, label %16
    i32 2, label %19
    i32 3, label %22
    i32 4, label %25
    i32 14, label %28
    i32 13, label %31
    i32 15, label %34
  ]

9:                                                ; preds = %2
  %10 = invoke noundef nonnull align 8 dereferenceable(32) ptr @_ZNSt7__cxx1112basic_stringIcSt11char_traitsIcESaIcEEaSEPKc(ptr noundef nonnull align 8 dereferenceable(32) %0, ptr noundef @.str.2)
          to label %11 unwind label %12

11:                                               ; preds = %9
  br label %38

12:                                               ; preds = %34, %31, %28, %25, %22, %19, %16, %9
  %13 = landingpad { ptr, i32 }
          cleanup
  %14 = extractvalue { ptr, i32 } %13, 0
  store ptr %14, ptr %6, align 8
  %15 = extractvalue { ptr, i32 } %13, 1
  store i32 %15, ptr %7, align 4
  call void @_ZNSt7__cxx1112basic_stringIcSt11char_traitsIcESaIcEED1Ev(ptr noundef nonnull align 8 dereferenceable(32) %0) #3
  br label %42

16:                                               ; preds = %2
  %17 = invoke noundef nonnull align 8 dereferenceable(32) ptr @_ZNSt7__cxx1112basic_stringIcSt11char_traitsIcESaIcEEaSEPKc(ptr noundef nonnull align 8 dereferenceable(32) %0, ptr noundef @.str.3)
          to label %18 unwind label %12

18:                                               ; preds = %16
  br label %38

19:                                               ; preds = %2
  %20 = invoke noundef nonnull align 8 dereferenceable(32) ptr @_ZNSt7__cxx1112basic_stringIcSt11char_traitsIcESaIcEEaSEPKc(ptr noundef nonnull align 8 dereferenceable(32) %0, ptr noundef @.str.4)
          to label %21 unwind label %12

21:                                               ; preds = %19
  br label %38

22:                                               ; preds = %2
  %23 = invoke noundef nonnull align 8 dereferenceable(32) ptr @_ZNSt7__cxx1112basic_stringIcSt11char_traitsIcESaIcEEaSEPKc(ptr noundef nonnull align 8 dereferenceable(32) %0, ptr noundef @.str.5)
          to label %24 unwind label %12

24:                                               ; preds = %22
  br label %38

25:                                               ; preds = %2
  %26 = invoke noundef nonnull align 8 dereferenceable(32) ptr @_ZNSt7__cxx1112basic_stringIcSt11char_traitsIcESaIcEEaSEPKc(ptr noundef nonnull align 8 dereferenceable(32) %0, ptr noundef @.str.6)
          to label %27 unwind label %12

27:                                               ; preds = %25
  br label %38

28:                                               ; preds = %2
  %29 = invoke noundef nonnull align 8 dereferenceable(32) ptr @_ZNSt7__cxx1112basic_stringIcSt11char_traitsIcESaIcEEaSEPKc(ptr noundef nonnull align 8 dereferenceable(32) %0, ptr noundef @.str.7)
          to label %30 unwind label %12

30:                                               ; preds = %28
  br label %38

31:                                               ; preds = %2
  %32 = invoke noundef nonnull align 8 dereferenceable(32) ptr @_ZNSt7__cxx1112basic_stringIcSt11char_traitsIcESaIcEEaSEPKc(ptr noundef nonnull align 8 dereferenceable(32) %0, ptr noundef @.str.8)
          to label %33 unwind label %12

33:                                               ; preds = %31
  br label %38

34:                                               ; preds = %2
  %35 = invoke noundef nonnull align 8 dereferenceable(32) ptr @_ZNSt7__cxx1112basic_stringIcSt11char_traitsIcESaIcEEaSEPKc(ptr noundef nonnull align 8 dereferenceable(32) %0, ptr noundef @.str.9)
          to label %36 unwind label %12

36:                                               ; preds = %34
  br label %38

37:                                               ; preds = %2
  br label %38

38:                                               ; preds = %37, %36, %33, %30, %27, %24, %21, %18, %11
  store i1 true, ptr %5, align 1
  %39 = load i1, ptr %5, align 1
  br i1 %39, label %41, label %40

40:                                               ; preds = %38
  call void @_ZNSt7__cxx1112basic_stringIcSt11char_traitsIcESaIcEED1Ev(ptr noundef nonnull align 8 dereferenceable(32) %0) #3
  br label %41

41:                                               ; preds = %40, %38
  ret void

42:                                               ; preds = %12
  %43 = load ptr, ptr %6, align 8
  %44 = load i32, ptr %7, align 4
  %45 = insertvalue { ptr, i32 } poison, ptr %43, 0
  %46 = insertvalue { ptr, i32 } %45, i32 %44, 1
  resume { ptr, i32 } %46
}