; Function Attrs: mustprogress uwtable
define dso_local void @_ZN24FunctionInvocationBinary16get_binop_stringB5cxx11E10eBinaryOps(ptr dead_on_unwind noalias nonnull writable sret(%"class.std::__cxx11::basic_string") align 8 %0, i32 noundef %1) local_unnamed_addr #4 align 2 personality ptr @__gxx_personality_v0 {
  tail call void @_ZNSt7__cxx1112basic_stringIcSt11char_traitsIcESaIcEEC1Ev(ptr noundef nonnull align 8 dereferenceable(32) %0) #15
  %3 = icmp ult i32 %1, 16
  br i1 %3, label %switch.hole_check, label %9

4:                                                ; preds = %switch.lookup
  %5 = landingpad { ptr, i32 }
          cleanup
  tail call void @_ZNSt7__cxx1112basic_stringIcSt11char_traitsIcESaIcEED1Ev(ptr noundef nonnull align 8 dereferenceable(32) %0) #15
  resume { ptr, i32 } %5

switch.hole_check:                                ; preds = %2
  %switch.maskindex = trunc i32 %1 to i16
  %switch.shifted = lshr i16 -8161, %switch.maskindex
  %6 = and i16 %switch.shifted, 1
  %switch.lobit.not = icmp eq i16 %6, 0
  br i1 %switch.lobit.not, label %9, label %switch.lookup

switch.lookup:                                    ; preds = %switch.hole_check
  %7 = zext nneg i32 %1 to i64
  %switch.gep = getelementptr inbounds [16 x ptr], ptr @switch.table._ZN24FunctionInvocationBinary16get_binop_stringB5cxx11E10eBinaryOps, i64 0, i64 %7
  %switch.load = load ptr, ptr %switch.gep, align 8
  %8 = invoke noundef nonnull align 8 dereferenceable(32) ptr @_ZNSt7__cxx1112basic_stringIcSt11char_traitsIcESaIcEEaSEPKc(ptr noundef nonnull align 8 dereferenceable(32) %0, ptr noundef nonnull %switch.load)
          to label %9 unwind label %4

9:                                                ; preds = %switch.hole_check, %2, %switch.lookup
  ret void
}